target datalayout = "e-m:e-p270:32:32-p271:32:32-p272:64:64-i64:64-i128:128-f80:128-n8:16:32:64-S128"
target triple = "x86_64-pc-linux-gnu"

; Function Attrs: nounwind uwtable
define internal void @SDL_Convert61To51(ptr noundef %0, ptr noundef %1, i32 noundef %2) #0 {
  %4 = alloca ptr, align 8
  %5 = alloca ptr, align 8
  %6 = alloca i32, align 4
  %7 = alloca i32, align 4
  %8 = alloca float, align 4
  %9 = alloca float, align 4
  %10 = alloca float, align 4
  store ptr %0, ptr %4, align 8
  store ptr %1, ptr %5, align 8
  store i32 %2, ptr %6, align 4
  call void @llvm.lifetime.start.p0(i64 4, ptr %7) #7
  %11 = load i32, ptr %6, align 4
  store i32 %11, ptr %7, align 4
  br label %12

12:                                               ; preds = %64, %3
  %13 = load i32, ptr %7, align 4
  %14 = icmp ne i32 %13, 0
  br i1 %14, label %15, label %71

15:                                               ; preds = %12
  call void @llvm.lifetime.start.p0(i64 4, ptr %8) #7
  %16 = load ptr, ptr %5, align 8
  %17 = getelementptr inbounds float, ptr %16, i64 4
  %18 = load float, ptr %17, align 4
  store float %18, ptr %8, align 4
  call void @llvm.lifetime.start.p0(i64 4, ptr %9) #7
  %19 = load ptr, ptr %5, align 8
  %20 = getelementptr inbounds float, ptr %19, i64 5
  %21 = load float, ptr %20, align 4
  store float %21, ptr %9, align 4
  call void @llvm.lifetime.start.p0(i64 4, ptr %10) #7
  %22 = load ptr, ptr %5, align 8
  %23 = getelementptr inbounds float, ptr %22, i64 6
  %24 = load float, ptr %23, align 4
  store float %24, ptr %10, align 4
  %25 = load ptr, ptr %5, align 8
  %26 = getelementptr inbounds float, ptr %25, i64 0
  %27 = load float, ptr %26, align 4
  %28 = load float, ptr %9, align 4
  %29 = fmul float %28, 0x3FCC8B43A0000000
  %30 = call float @llvm.fmuladd.f32(float %27, float 0x3FE38D4FE0000000, float %29)
  %31 = load ptr, ptr %4, align 8
  %32 = getelementptr inbounds float, ptr %31, i64 0
  store float %30, ptr %32, align 4
  %33 = load ptr, ptr %5, align 8
  %34 = getelementptr inbounds float, ptr %33, i64 1
  %35 = load float, ptr %34, align 4
  %36 = load float, ptr %10, align 4
  %37 = fmul float %36, 0x3FCC8B43A0000000
  %38 = call float @llvm.fmuladd.f32(float %35, float 0x3FE38D4FE0000000, float %37)
  %39 = load ptr, ptr %4, align 8
  %40 = getelementptr inbounds float, ptr %39, i64 1
  store float %38, ptr %40, align 4
  %41 = load ptr, ptr %5, align 8
  %42 = getelementptr inbounds float, ptr %41, i64 2
  %43 = load float, ptr %42, align 4
  %44 = fmul float %43, 0x3FE38D4FE0000000
  %45 = load ptr, ptr %4, align 8
  %46 = getelementptr inbounds float, ptr %45, i64 2
  store float %44, ptr %46, align 4
  %47 = load ptr, ptr %5, align 8
  %48 = getelementptr inbounds float, ptr %47, i64 3
  %49 = load float, ptr %48, align 4
  %50 = load ptr, ptr %4, align 8
  %51 = getelementptr inbounds float, ptr %50, i64 3
  store float %49, ptr %51, align 4
  %52 = load float, ptr %8, align 4
  %53 = load float, ptr %9, align 4
  %54 = fmul float %53, 0x3FE22D0E60000000
  %55 = call float @llvm.fmuladd.f32(float %52, float 0x3FDBA5E360000000, float %54)
  %56 = load ptr, ptr %4, align 8
  %57 = getelementptr inbounds float, ptr %56, i64 4
  store float %55, ptr %57, align 4
  %58 = load float, ptr %8, align 4
  %59 = load float, ptr %10, align 4
  %60 = fmul float %59, 0x3FE22D0E60000000
  %61 = call float @llvm.fmuladd.f32(float %58, float 0x3FDBA5E360000000, float %60)
  %62 = load ptr, ptr %4, align 8
  %63 = getelementptr inbounds float, ptr %62, i64 5
  store float %61, ptr %63, align 4
  call void @llvm.lifetime.end.p0(i64 4, ptr %10) #7
  call void @llvm.lifetime.end.p0(i64 4, ptr %9) #7
  call void @llvm.lifetime.end.p0(i64 4, ptr %8) #7
  br label %64

64:                                               ; preds = %15
  %65 = load i32, ptr %7, align 4
  %66 = add nsw i32 %65, -1
  store i32 %66, ptr %7, align 4
  %67 = load ptr, ptr %5, align 8
  %68 = getelementptr inbounds float, ptr %67, i64 7
  store ptr %68, ptr %5, align 8
  %69 = load ptr, ptr %4, align 8
  %70 = getelementptr inbounds float, ptr %69, i64 6
  store ptr %70, ptr %4, align 8
  br label %12, !llvm.loop !91

71:                                               ; preds = %12
  call void @llvm.lifetime.end.p0(i64 4, ptr %7) #7
  ret void
}