; Function Attrs: nofree norecurse nosync nounwind memory(argmem: readwrite) uwtable
define internal void @SDL_Convert61To51(ptr noundef writeonly captures(none) %0, ptr noundef readonly captures(none) %1, i32 noundef %2) #5 {
  %.not25 = icmp eq i32 %2, 0
  br i1 %.not25, label %._crit_edge, label %.lr.ph

.lr.ph:                                           ; preds = %3, %.lr.ph
  %.028 = phi ptr [ %33, %.lr.ph ], [ %0, %3 ]
  %.02327 = phi ptr [ %32, %.lr.ph ], [ %1, %3 ]
  %.02426 = phi i32 [ %31, %.lr.ph ], [ %2, %3 ]
  %4 = getelementptr inbounds nuw i8, ptr %.02327, i64 16
  %5 = load float, ptr %4, align 4
  %6 = getelementptr inbounds nuw i8, ptr %.02327, i64 20
  %7 = load float, ptr %6, align 4
  %8 = getelementptr inbounds nuw i8, ptr %.02327, i64 24
  %9 = load float, ptr %8, align 4
  %10 = load float, ptr %.02327, align 4
  %11 = fmul float %7, 0x3FCC8B43A0000000
  %12 = tail call float @llvm.fmuladd.f32(float %10, float 0x3FE38D4FE0000000, float %11)
  store float %12, ptr %.028, align 4
  %13 = getelementptr inbounds nuw i8, ptr %.02327, i64 4
  %14 = load float, ptr %13, align 4
  %15 = fmul float %9, 0x3FCC8B43A0000000
  %16 = tail call float @llvm.fmuladd.f32(float %14, float 0x3FE38D4FE0000000, float %15)
  %17 = getelementptr inbounds nuw i8, ptr %.028, i64 4
  store float %16, ptr %17, align 4
  %18 = getelementptr inbounds nuw i8, ptr %.02327, i64 8
  %19 = load float, ptr %18, align 4
  %20 = fmul float %19, 0x3FE38D4FE0000000
  %21 = getelementptr inbounds nuw i8, ptr %.028, i64 8
  store float %20, ptr %21, align 4
  %22 = getelementptr inbounds nuw i8, ptr %.02327, i64 12
  %23 = load float, ptr %22, align 4
  %24 = getelementptr inbounds nuw i8, ptr %.028, i64 12
  store float %23, ptr %24, align 4
  %25 = fmul float %7, 0x3FE22D0E60000000
  %26 = tail call float @llvm.fmuladd.f32(float %5, float 0x3FDBA5E360000000, float %25)
  %27 = getelementptr inbounds nuw i8, ptr %.028, i64 16
  store float %26, ptr %27, align 4
  %28 = fmul float %9, 0x3FE22D0E60000000
  %29 = tail call float @llvm.fmuladd.f32(float %5, float 0x3FDBA5E360000000, float %28)
  %30 = getelementptr inbounds nuw i8, ptr %.028, i64 20
  store float %29, ptr %30, align 4
  %31 = add nsw i32 %.02426, -1
  %32 = getelementptr inbounds nuw i8, ptr %.02327, i64 28
  %33 = getelementptr inbounds nuw i8, ptr %.028, i64 24
  %.not = icmp eq i32 %31, 0
  br i1 %.not, label %._crit_edge, label %.lr.ph, !llvm.loop !97

._crit_edge:                                      ; preds = %.lr.ph, %3
  ret void
}